Certificate:
    Data:
        Version: 3 (0x2)
        Serial Number: 1 (0x1)
        Signature Algorithm: sha256WithRSAEncryption
        Issuer: C=US, ST=WA, L=SE, O=SH, OU=SH, CN=SH/emailAddress=shirleyfyffe@outlook.com
        Validity
            Not Before: Aug  9 00:02:39 2019 GMT
            Not After : Aug  8 00:02:39 2020 GMT
        Subject: C=US, ST=WA, O=SH, OU=SH, CN=SH/emailAddress=shirleyfyffe@outlook.com
        Subject Public Key Info:
            Public Key Algorithm: rsaEncryption
                RSA Public-Key: (1024 bit)
                Modulus:
                    00:c2:56:9f:02:aa:d7:aa:61:ec:a0:a3:45:52:ac:
                    2d:e7:ed:da:e6:58:e6:2a:4d:24:f4:a6:59:94:95:
                    dd:77:98:74:24:bb:08:bb:42:75:12:65:65:26:61:
                    21:3c:d4:ff:f4:cf:07:01:e6:6b:07:b5:8d:1d:f3:
                    9a:73:98:81:e2:ba:3f:8c:93:ab:c3:7f:bd:81:0d:
                    2b:d3:dd:17:21:1c:7f:a5:48:00:9e:b9:13:ee:0f:
                    4a:22:61:54:c5:b0:e1:f6:72:72:0c:2a:38:fd:bc:
                    b3:29:bd:a6:32:13:58:c6:c9:36:89:f8:a7:a7:18:
                    67:a0:f0:c0:25:13:d5:f2:61
                Exponent: 65537 (0x10001)
        X509v3 extensions:
            X509v3 Basic Constraints: 
                CA:FALSE
            Netscape Comment: 
                OpenSSL Generated Certificate
            X509v3 Subject Key Identifier: 
                C7:22:F0:BC:6F:6D:F8:2A:D9:C0:E4:49:27:03:DA:9E:63:BB:1C:1C
            X509v3 Authority Key Identifier: 
                DirName:/C=US/ST=WA/L=SE/O=SH/OU=SH/CN=SH/emailAddress=shirleyfyffe@outlook.com
                serial:8E:CE:EA:08:42:FB:93:1A

    Signature Algorithm: sha256WithRSAEncryption
         b3:42:a3:c0:77:ac:2f:8c:59:e8:ef:6e:e4:1c:68:a3:16:41:
         fa:0f:68:68:22:24:ac:3a:87:6f:1b:6b:6b:1d:a8:95:d2:6a:
         66:e5:48:f5:60:1c:bb:4d:6c:12:dc:b3:e7:8e:58:aa:d3:01:
         f4:b1:12:f9:be:6a:c8:d4:15:88:6f:d5:9c:c7:6e:d1:c6:46:
         b7:23:c8:43:39:28:09:25:f4:12:a8:e6:25:b0:ee:5f:9c:3f:
         01:3e:7e:ca:6c:43:97:54:ed:91:f6:a6:ca:f4:e0:6f:1c:d5:
         83:e5:57:c1:fb:46:96:c0:ee:c4:1c:34:b7:b8:0d:07:47:18:
         0b:e7:22:fa:96:d7:c4:9c:dc:85:5d:76:47:0d:5e:72:38:8d:
         fd:62:7f:54:59:14:86:4a:af:3b:2a:bc:1b:44:fc:5c:c4:d5:
         fa:0c:2f:3f:70:a2:61:7f:79:5f:8c:6e:5d:ff:e9:19:e6:ec:
         55:fa:10:61:89:79:1e:80:65:3f:43:fd:23:c8:b5:d8:dc:44:
         6f:ec:74:15:f9:c4:2c:5b:bb:3e:d2:cf:7a:18:68:49:db:2b:
         34:d8:41:79:25:18:b3:3f:5c:af:e4:b8:c0:6c:52:96:e8:9b:
         34:11:1c:43:0d:bd:89:b2:87:d3:71:7f:6b:6e:07:e9:1e:e9:
         72:6f:01:8f
-----BEGIN CERTIFICATE-----
MIIDyjCCArKgAwIBAgIBATANBgkqhkiG9w0BAQsFADB3MQswCQYDVQQGEwJVUzEL
MAkGA1UECAwCV0ExCzAJBgNVBAcMAlNFMQswCQYDVQQKDAJTSDELMAkGA1UECwwC
U0gxCzAJBgNVBAMMAlNIMScwJQYJKoZIhvcNAQkBFhhzaGlybGV5ZnlmZmVAb3V0
bG9vay5jb20wHhcNMTkwODA5MDAwMjM5WhcNMjAwODA4MDAwMjM5WjBqMQswCQYD
VQQGEwJVUzELMAkGA1UECAwCV0ExCzAJBgNVBAoMAlNIMQswCQYDVQQLDAJTSDEL
MAkGA1UEAwwCU0gxJzAlBgkqhkiG9w0BCQEWGHNoaXJsZXlmeWZmZUBvdXRsb29r
LmNvbTCBnzANBgkqhkiG9w0BAQEFAAOBjQAwgYkCgYEAwlafAqrXqmHsoKNFUqwt
5+3a5ljmKk0k9KZZlJXdd5h0JLsIu0J1EmVlJmEhPNT/9M8HAeZrB7WNHfOac5iB
4ro/jJOrw3+9gQ0r090XIRx/pUgAnrkT7g9KImFUxbDh9nJyDCo4/byzKb2mMhNY
xsk2ifinpxhnoPDAJRPV8mECAwEAAaOB8TCB7jAJBgNVHRMEAjAAMCwGCWCGSAGG
+EIBDQQfFh1PcGVuU1NMIEdlbmVyYXRlZCBDZXJ0aWZpY2F0ZTAdBgNVHQ4EFgQU
xyLwvG9t+CrZwORJJwPanmO7HBwwgZMGA1UdIwSBizCBiKF7pHkwdzELMAkGA1UE
BhMCVVMxCzAJBgNVBAgMAldBMQswCQYDVQQHDAJTRTELMAkGA1UECgwCU0gxCzAJ
BgNVBAsMAlNIMQswCQYDVQQDDAJTSDEnMCUGCSqGSIb3DQEJARYYc2hpcmxleWZ5
ZmZlQG91dGxvb2suY29tggkAjs7qCEL7kxowDQYJKoZIhvcNAQELBQADggEBALNC
o8B3rC+MWejvbuQcaKMWQfoPaGgiJKw6h28ba2sdqJXSamblSPVgHLtNbBLcs+eO
WKrTAfSxEvm+asjUFYhv1ZzHbtHGRrcjyEM5KAkl9BKo5iWw7l+cPwE+fspsQ5dU
7ZH2psr04G8c1YPlV8H7RpbA7sQcNLe4DQdHGAvnIvqW18Sc3IVddkcNXnI4jf1i
f1RZFIZKrzsqvBtE/FzE1foMLz9womF/eV+Mbl3/6Rnm7FX6EGGJeR6AZT9D/SPI
tdjcRG/sdBX5xCxbuz7Sz3oYaEnbKzTYQXklGLM/XK/kuMBsUpbomzQRHEMNvYmy
h9Nxf2tuB+ke6XJvAY8=
-----END CERTIFICATE-----
